target datalayout = "e-m:e-p270:32:32-p271:32:32-p272:64:64-i64:64-i128:128-f80:128-n8:16:32:64-S128"
target triple = "x86_64-unknown-linux-gnu"

%struct.arena_config_s = type { ptr, i8 }
%struct.malloc_mutex_s = type { %union.anon }
%union.anon = type { %struct.anon.1 }
%struct.anon.1 = type { %struct.mutex_prof_data_t, %union.pthread_mutex_t, %struct.atomic_b_t }
%struct.mutex_prof_data_t = type { %struct.nstime_t, %struct.nstime_t, i64, i64, i32, %struct.atomic_u32_t, i64, ptr, i64 }
%struct.nstime_t = type { i64 }
%struct.atomic_u32_t = type { i32 }
%union.pthread_mutex_t = type { %struct.__pthread_mutex_s }
%struct.__pthread_mutex_s = type { i32, i32, i32, i32, i32, i16, i16, %struct.__pthread_internal_list }
%struct.__pthread_internal_list = type { ptr, ptr }
%struct.atomic_b_t = type { i8 }
%struct.atomic_p_t = type { ptr }
%struct.atomic_zd_t = type { i64 }
%struct.hpa_shard_opts_s = type { i64, i64, i32, i8, i64, i64 }
%struct.sec_opts_s = type { i64, i64, i64, i64, i64 }
%struct.arena_s = type { [2 x %struct.atomic_u_t], %struct.atomic_u_t, ptr, %struct.arena_stats_s, %struct.anon, %struct.anon.0, %struct.malloc_mutex_s, %struct.atomic_u_t, %struct.edata_list_active_t, %struct.malloc_mutex_s, %struct.pa_shard_s, i32, ptr, %struct.nstime_t, [0 x %struct.bin_s] }
%struct.arena_stats_s = type { i64, i64, i64, i64, %struct.atomic_zu_t, i64, i64, i64, i64, i64, i64, %struct.pa_shard_stats_s, i64, i64, [12 x %struct.mutex_prof_data_t], [196 x %struct.arena_stats_large_s], %struct.nstime_t }
%struct.atomic_zu_t = type { i64 }
%struct.pa_shard_stats_s = type { i64, %struct.pac_stats_s }
%struct.pac_stats_s = type { %struct.pac_decay_stats_s, %struct.pac_decay_stats_s, i64, %struct.atomic_zu_t, %struct.atomic_zu_t }
%struct.pac_decay_stats_s = type { %struct.locked_u64_s, %struct.locked_u64_s, %struct.locked_u64_s }
%struct.locked_u64_s = type { %struct.atomic_u64_t }
%struct.atomic_u64_t = type { i64 }
%struct.arena_stats_large_s = type { %struct.locked_u64_s, %struct.locked_u64_s, %struct.locked_u64_s, %struct.locked_u64_s, %struct.locked_u64_s, i64 }
%struct.anon = type { ptr }
%struct.anon.0 = type { ptr }
%struct.atomic_u_t = type { i32 }
%struct.edata_list_active_t = type { %struct.anon.3 }
%struct.anon.3 = type { ptr }
%struct.pa_shard_s = type { ptr, %struct.atomic_zu_t, %struct.atomic_b_t, i8, %struct.pac_s, %struct.sec_s, %struct.hpa_shard_s, %struct.edata_cache_s, i32, ptr, ptr, ptr, ptr }
%struct.pac_s = type { %struct.pai_s, %struct.ecache_s, %struct.ecache_s, %struct.ecache_s, ptr, ptr, ptr, %struct.exp_grow_s, %struct.malloc_mutex_s, %struct.san_bump_alloc_s, %struct.atomic_zu_t, %struct.decay_s, %struct.decay_s, ptr, ptr, %struct.atomic_zu_t }
%struct.pai_s = type { ptr, ptr, ptr, ptr, ptr, ptr, ptr }
%struct.ecache_s = type { %struct.malloc_mutex_s, %struct.eset_s, %struct.eset_s, i32, i32, i8 }
%struct.eset_s = type { [4 x i64], [200 x %struct.eset_bin_s], [200 x %struct.eset_bin_stats_s], %struct.edata_list_inactive_t, %struct.atomic_zu_t, i32 }
%struct.eset_bin_s = type { %struct.edata_heap_t, %struct.edata_cmp_summary_s }
%struct.edata_heap_t = type { %struct.ph_s }
%struct.ph_s = type { ptr, i64 }
%struct.edata_cmp_summary_s = type { i64, i64 }
%struct.eset_bin_stats_s = type { %struct.atomic_zu_t, %struct.atomic_zu_t }
%struct.edata_list_inactive_t = type { %struct.anon.4 }
%struct.anon.4 = type { ptr }
%struct.exp_grow_s = type { i32, i32 }
%struct.san_bump_alloc_s = type { %struct.malloc_mutex_s, ptr }
%struct.decay_s = type { %struct.malloc_mutex_s, i8, %struct.atomic_zd_t, %struct.nstime_t, %struct.nstime_t, i64, %struct.nstime_t, i64, i64, [200 x i64], i64 }
%struct.sec_s = type { %struct.pai_s, ptr, %struct.sec_opts_s, ptr, i32 }
%struct.hpa_shard_s = type { %struct.pai_s, ptr, %struct.malloc_mutex_s, %struct.malloc_mutex_s, ptr, %struct.edata_cache_fast_s, %struct.psset_s, i64, i32, ptr, %struct.hpa_shard_opts_s, i64, %struct.hpa_shard_nonderived_stats_s, %struct.nstime_t }
%struct.edata_cache_fast_s = type { %struct.edata_list_inactive_t, ptr, i8 }
%struct.psset_s = type { [64 x %struct.hpdata_age_heap_t], [1 x i64], %struct.psset_bin_stats_s, %struct.psset_stats_s, %struct.hpdata_empty_list_t, [128 x %struct.hpdata_purge_list_t], [2 x i64], %struct.hpdata_hugify_list_t }
%struct.hpdata_age_heap_t = type { %struct.ph_s }
%struct.psset_bin_stats_s = type { i64, i64, i64 }
%struct.psset_stats_s = type { [64 x [2 x %struct.psset_bin_stats_s]], [2 x %struct.psset_bin_stats_s], [2 x %struct.psset_bin_stats_s] }
%struct.hpdata_empty_list_t = type { %struct.anon.5 }
%struct.anon.5 = type { ptr }
%struct.hpdata_purge_list_t = type { %struct.anon.6 }
%struct.anon.6 = type { ptr }
%struct.hpdata_hugify_list_t = type { %struct.anon.7 }
%struct.anon.7 = type { ptr }
%struct.hpa_shard_nonderived_stats_s = type { i64, i64, i64, i64 }
%struct.edata_cache_s = type { %struct.edata_avail_t, %struct.atomic_zu_t, %struct.malloc_mutex_s, ptr }
%struct.edata_avail_t = type { %struct.ph_s }
%struct.bin_s = type { %struct.malloc_mutex_s, %struct.bin_stats_s, ptr, %struct.edata_heap_t, %struct.edata_list_active_t }
%struct.bin_stats_s = type { i64, i64, i64, i64, i64, i64, i64, i64, i64, i64 }

@arena_config_default = hidden constant %struct.arena_config_s { ptr @ehooks_default_extent_hooks, i8 1 }, align 8
@dirty_decay_ms_default = internal global %struct.atomic_zd_t zeroinitializer, align 8
@muzzy_decay_ms_default = internal global %struct.atomic_zd_t zeroinitializer, align 8
@huge_arena_ind = internal global i32 0, align 4
@arenas = external global [0 x %struct.atomic_p_t], align 8
@background_thread_enabled_state = external global %struct.atomic_b_t, align 1

; Function Attrs: nounwind uwtable
define internal i32 @arena_decide_unforced_purge_eagerness(i1 noundef zeroext %is_background_thread) #0 {
entry:
  %retval.i.i = alloca i32, align 4
  %mo.addr.i.i = alloca i32, align 4
  %a.addr.i = alloca ptr, align 8
  %mo.addr.i = alloca i32, align 4
  %result.i = alloca i8, align 1
  %retval = alloca i32, align 4
  %is_background_thread.addr = alloca i8, align 1
  %frombool = zext i1 %is_background_thread to i8
  store i8 %frombool, ptr %is_background_thread.addr, align 1
  %0 = load i8, ptr %is_background_thread.addr, align 1
  %tobool = trunc i8 %0 to i1
  br i1 %tobool, label %if.then, label %if.else

if.then:                                          ; preds = %entry
  store i32 0, ptr %retval, align 4
  br label %return

if.else:                                          ; preds = %entry
  %1 = load i8, ptr %is_background_thread.addr, align 1
  %tobool1 = trunc i8 %1 to i1
  br i1 %tobool1, label %if.else3, label %land.lhs.true

land.lhs.true:                                    ; preds = %if.else
  store ptr @background_thread_enabled_state, ptr %a.addr.i, align 8
  store i32 0, ptr %mo.addr.i, align 4
  %2 = load ptr, ptr %a.addr.i, align 8
  %3 = load i32, ptr %mo.addr.i, align 4
  store i32 %3, ptr %mo.addr.i.i, align 4
  %4 = load i32, ptr %mo.addr.i.i, align 4
  switch i32 %4, label %sw.epilog.i.i [
    i32 0, label %sw.bb.i.i
    i32 1, label %sw.bb1.i.i
    i32 2, label %sw.bb2.i.i
    i32 3, label %sw.bb3.i.i
    i32 4, label %sw.bb4.i.i
  ]

sw.bb.i.i:                                        ; preds = %land.lhs.true
  store i32 0, ptr %retval.i.i, align 4
  br label %atomic_enum_to_builtin.exit.i

sw.bb1.i.i:                                       ; preds = %land.lhs.true
  store i32 2, ptr %retval.i.i, align 4
  br label %atomic_enum_to_builtin.exit.i

sw.bb2.i.i:                                       ; preds = %land.lhs.true
  store i32 3, ptr %retval.i.i, align 4
  br label %atomic_enum_to_builtin.exit.i

sw.bb3.i.i:                                       ; preds = %land.lhs.true
  store i32 4, ptr %retval.i.i, align 4
  br label %atomic_enum_to_builtin.exit.i

sw.bb4.i.i:                                       ; preds = %land.lhs.true
  store i32 5, ptr %retval.i.i, align 4
  br label %atomic_enum_to_builtin.exit.i

sw.epilog.i.i:                                    ; preds = %land.lhs.true
  unreachable

atomic_enum_to_builtin.exit.i:                    ; preds = %sw.bb4.i.i, %sw.bb3.i.i, %sw.bb2.i.i, %sw.bb1.i.i, %sw.bb.i.i
  %5 = load i32, ptr %retval.i.i, align 4
  switch i32 %5, label %monotonic.i [
    i32 1, label %acquire.i
    i32 2, label %acquire.i
    i32 5, label %seqcst.i
  ]

monotonic.i:                                      ; preds = %atomic_enum_to_builtin.exit.i
  %6 = load atomic i8, ptr %2 monotonic, align 1
  store i8 %6, ptr %result.i, align 1
  br label %atomic_load_b.exit

acquire.i:                                        ; preds = %atomic_enum_to_builtin.exit.i, %atomic_enum_to_builtin.exit.i
  %7 = load atomic i8, ptr %2 acquire, align 1
  store i8 %7, ptr %result.i, align 1
  br label %atomic_load_b.exit

seqcst.i:                                         ; preds = %atomic_enum_to_builtin.exit.i
  %8 = load atomic i8, ptr %2 seq_cst, align 1
  store i8 %8, ptr %result.i, align 1
  br label %atomic_load_b.exit

atomic_load_b.exit:                               ; preds = %seqcst.i, %acquire.i, %monotonic.i
  %9 = load i8, ptr %result.i, align 1
  %tobool.i = trunc i8 %9 to i1
  br i1 %tobool.i, label %if.then2, label %if.else3

if.then2:                                         ; preds = %atomic_load_b.exit
  store i32 1, ptr %retval, align 4
  br label %return

if.else3:                                         ; preds = %atomic_load_b.exit, %if.else
  store i32 2, ptr %retval, align 4
  br label %return

return:                                           ; preds = %if.else3, %if.then2, %if.then
  %10 = load i32, ptr %retval, align 4
  ret i32 %10
}

; Function Attrs: nounwind uwtable
define hidden i64 @arena_muzzy_decay_ms_default_get() #0 {
entry:
  %retval.i = alloca i32, align 4
  %mo.addr.i1 = alloca i32, align 4
  %a.addr.i = alloca ptr, align 8
  %mo.addr.i = alloca i32, align 4
  %result.i = alloca i64, align 8
  store ptr @muzzy_decay_ms_default, ptr %a.addr.i, align 8
  store i32 0, ptr %mo.addr.i, align 4
  %0 = load ptr, ptr %a.addr.i, align 8
  %1 = load i32, ptr %mo.addr.i, align 4
  store i32 %1, ptr %mo.addr.i1, align 4
  %2 = load i32, ptr %mo.addr.i1, align 4
  switch i32 %2, label %sw.epilog.i [
    i32 0, label %sw.bb.i
    i32 1, label %sw.bb1.i
    i32 2, label %sw.bb2.i
    i32 3, label %sw.bb3.i
    i32 4, label %sw.bb4.i
  ]

sw.bb.i:                                          ; preds = %entry
  store i32 0, ptr %retval.i, align 4
  br label %atomic_enum_to_builtin.exit

sw.bb1.i:                                         ; preds = %entry
  store i32 2, ptr %retval.i, align 4
  br label %atomic_enum_to_builtin.exit

sw.bb2.i:                                         ; preds = %entry
  store i32 3, ptr %retval.i, align 4
  br label %atomic_enum_to_builtin.exit

sw.bb3.i:                                         ; preds = %entry
  store i32 4, ptr %retval.i, align 4
  br label %atomic_enum_to_builtin.exit

sw.bb4.i:                                         ; preds = %entry
  store i32 5, ptr %retval.i, align 4
  br label %atomic_enum_to_builtin.exit

sw.epilog.i:                                      ; preds = %entry
  unreachable

atomic_enum_to_builtin.exit:                      ; preds = %sw.bb4.i, %sw.bb3.i, %sw.bb2.i, %sw.bb1.i, %sw.bb.i
  %3 = load i32, ptr %retval.i, align 4
  switch i32 %3, label %monotonic.i [
    i32 1, label %acquire.i
    i32 2, label %acquire.i
    i32 5, label %seqcst.i
  ]

monotonic.i:                                      ; preds = %atomic_enum_to_builtin.exit
  %4 = load atomic i64, ptr %0 monotonic, align 8
  store i64 %4, ptr %result.i, align 8
  br label %atomic_load_zd.exit

acquire.i:                                        ; preds = %atomic_enum_to_builtin.exit, %atomic_enum_to_builtin.exit
  %5 = load atomic i64, ptr %0 acquire, align 8
  store i64 %5, ptr %result.i, align 8
  br label %atomic_load_zd.exit

seqcst.i:                                         ; preds = %atomic_enum_to_builtin.exit
  %6 = load atomic i64, ptr %0 seq_cst, align 8
  store i64 %6, ptr %result.i, align 8
  br label %atomic_load_zd.exit

atomic_load_zd.exit:                              ; preds = %seqcst.i, %acquire.i, %monotonic.i
  %7 = load i64, ptr %result.i, align 8
  ret i64 %7
}

; Function Attrs: nounwind uwtable
define hidden zeroext i1 @arena_decay_ms_set(ptr noundef %tsdn, ptr noundef %arena, i32 noundef %state, i64 noundef %decay_ms) #0 {
entry:
  %tsdn.addr = alloca ptr, align 8
  %arena.addr = alloca ptr, align 8
  %state.addr = alloca i32, align 4
  %decay_ms.addr = alloca i64, align 8
  %eagerness = alloca i32, align 4
  store ptr %tsdn, ptr %tsdn.addr, align 8
  store ptr %arena, ptr %arena.addr, align 8
  store i32 %state, ptr %state.addr, align 4
  store i64 %decay_ms, ptr %decay_ms.addr, align 8
  %call = call i32 @arena_decide_unforced_purge_eagerness(i1 noundef zeroext false)
  store i32 %call, ptr %eagerness, align 4
  %0 = load ptr, ptr %tsdn.addr, align 8
  %1 = load ptr, ptr %arena.addr, align 8
  %pa_shard = getelementptr inbounds %struct.arena_s, ptr %1, i32 0, i32 10
  %2 = load i32, ptr %state.addr, align 4
  %3 = load i64, ptr %decay_ms.addr, align 8
  %4 = load i32, ptr %eagerness, align 4
  %call1 = call zeroext i1 @pa_decay_ms_set(ptr noundef %0, ptr noundef %pa_shard, i32 noundef %2, i64 noundef %3, i32 noundef %4)
  ret i1 %call1
}

; Function Attrs: nounwind uwtable
define hidden i64 @arena_dirty_decay_ms_default_get() #0 {
entry:
  %retval.i = alloca i32, align 4
  %mo.addr.i1 = alloca i32, align 4
  %a.addr.i = alloca ptr, align 8
  %mo.addr.i = alloca i32, align 4
  %result.i = alloca i64, align 8
  store ptr @dirty_decay_ms_default, ptr %a.addr.i, align 8
  store i32 0, ptr %mo.addr.i, align 4
  %0 = load ptr, ptr %a.addr.i, align 8
  %1 = load i32, ptr %mo.addr.i, align 4
  store i32 %1, ptr %mo.addr.i1, align 4
  %2 = load i32, ptr %mo.addr.i1, align 4
  switch i32 %2, label %sw.epilog.i [
    i32 0, label %sw.bb.i
    i32 1, label %sw.bb1.i
    i32 2, label %sw.bb2.i
    i32 3, label %sw.bb3.i
    i32 4, label %sw.bb4.i
  ]

sw.bb.i:                                          ; preds = %entry
  store i32 0, ptr %retval.i, align 4
  br label %atomic_enum_to_builtin.exit

sw.bb1.i:                                         ; preds = %entry
  store i32 2, ptr %retval.i, align 4
  br label %atomic_enum_to_builtin.exit

sw.bb2.i:                                         ; preds = %entry
  store i32 3, ptr %retval.i, align 4
  br label %atomic_enum_to_builtin.exit

sw.bb3.i:                                         ; preds = %entry
  store i32 4, ptr %retval.i, align 4
  br label %atomic_enum_to_builtin.exit

sw.bb4.i:                                         ; preds = %entry
  store i32 5, ptr %retval.i, align 4
  br label %atomic_enum_to_builtin.exit

sw.epilog.i:                                      ; preds = %entry
  unreachable

atomic_enum_to_builtin.exit:                      ; preds = %sw.bb4.i, %sw.bb3.i, %sw.bb2.i, %sw.bb1.i, %sw.bb.i
  %3 = load i32, ptr %retval.i, align 4
  switch i32 %3, label %monotonic.i [
    i32 1, label %acquire.i
    i32 2, label %acquire.i
    i32 5, label %seqcst.i
  ]

monotonic.i:                                      ; preds = %atomic_enum_to_builtin.exit
  %4 = load atomic i64, ptr %0 monotonic, align 8
  store i64 %4, ptr %result.i, align 8
  br label %atomic_load_zd.exit

acquire.i:                                        ; preds = %atomic_enum_to_builtin.exit, %atomic_enum_to_builtin.exit
  %5 = load atomic i64, ptr %0 acquire, align 8
  store i64 %5, ptr %result.i, align 8
  br label %atomic_load_zd.exit

seqcst.i:                                         ; preds = %atomic_enum_to_builtin.exit
  %6 = load atomic i64, ptr %0 seq_cst, align 8
  store i64 %6, ptr %result.i, align 8
  br label %atomic_load_zd.exit

atomic_load_zd.exit:                              ; preds = %seqcst.i, %acquire.i, %monotonic.i
  %7 = load i64, ptr %result.i, align 8
  ret i64 %7
}

; Function Attrs: nounwind uwtable
define internal ptr @arena_get(ptr noundef %tsdn, i32 noundef %ind, i1 noundef zeroext %init_if_missing) #0 {
entry:
  %retval.i.i = alloca i32, align 4
  %mo.addr.i.i = alloca i32, align 4
  %a.addr.i = alloca ptr, align 8
  %mo.addr.i = alloca i32, align 4
  %result.i = alloca ptr, align 8
  %tsdn.addr = alloca ptr, align 8
  %ind.addr = alloca i32, align 4
  %init_if_missing.addr = alloca i8, align 1
  %ret = alloca ptr, align 8
  store ptr %tsdn, ptr %tsdn.addr, align 8
  store i32 %ind, ptr %ind.addr, align 4
  %frombool = zext i1 %init_if_missing to i8
  store i8 %frombool, ptr %init_if_missing.addr, align 1
  br label %do.body

do.body:                                          ; preds = %entry
  br label %do.end

do.end:                                           ; preds = %do.body
  %0 = load i32, ptr %ind.addr, align 4
  %idxprom = zext i32 %0 to i64
  %arrayidx = getelementptr inbounds [0 x %struct.atomic_p_t], ptr @arenas, i64 0, i64 %idxprom
  store ptr %arrayidx, ptr %a.addr.i, align 8
  store i32 1, ptr %mo.addr.i, align 4
  %1 = load ptr, ptr %a.addr.i, align 8
  %2 = load i32, ptr %mo.addr.i, align 4
  store i32 %2, ptr %mo.addr.i.i, align 4
  %3 = load i32, ptr %mo.addr.i.i, align 4
  switch i32 %3, label %sw.epilog.i.i [
    i32 0, label %sw.bb.i.i
    i32 1, label %sw.bb1.i.i
    i32 2, label %sw.bb2.i.i
    i32 3, label %sw.bb3.i.i
    i32 4, label %sw.bb4.i.i
  ]

sw.bb.i.i:                                        ; preds = %do.end
  store i32 0, ptr %retval.i.i, align 4
  br label %atomic_enum_to_builtin.exit.i

sw.bb1.i.i:                                       ; preds = %do.end
  store i32 2, ptr %retval.i.i, align 4
  br label %atomic_enum_to_builtin.exit.i

sw.bb2.i.i:                                       ; preds = %do.end
  store i32 3, ptr %retval.i.i, align 4
  br label %atomic_enum_to_builtin.exit.i

sw.bb3.i.i:                                       ; preds = %do.end
  store i32 4, ptr %retval.i.i, align 4
  br label %atomic_enum_to_builtin.exit.i

sw.bb4.i.i:                                       ; preds = %do.end
  store i32 5, ptr %retval.i.i, align 4
  br label %atomic_enum_to_builtin.exit.i

sw.epilog.i.i:                                    ; preds = %do.end
  unreachable

atomic_enum_to_builtin.exit.i:                    ; preds = %sw.bb4.i.i, %sw.bb3.i.i, %sw.bb2.i.i, %sw.bb1.i.i, %sw.bb.i.i
  %4 = load i32, ptr %retval.i.i, align 4
  switch i32 %4, label %monotonic.i [
    i32 1, label %acquire.i
    i32 2, label %acquire.i
    i32 5, label %seqcst.i
  ]

monotonic.i:                                      ; preds = %atomic_enum_to_builtin.exit.i
  %5 = load atomic i64, ptr %1 monotonic, align 8
  store i64 %5, ptr %result.i, align 8
  br label %atomic_load_p.exit

acquire.i:                                        ; preds = %atomic_enum_to_builtin.exit.i, %atomic_enum_to_builtin.exit.i
  %6 = load atomic i64, ptr %1 acquire, align 8
  store i64 %6, ptr %result.i, align 8
  br label %atomic_load_p.exit

seqcst.i:                                         ; preds = %atomic_enum_to_builtin.exit.i
  %7 = load atomic i64, ptr %1 seq_cst, align 8
  store i64 %7, ptr %result.i, align 8
  br label %atomic_load_p.exit

atomic_load_p.exit:                               ; preds = %seqcst.i, %acquire.i, %monotonic.i
  %8 = load ptr, ptr %result.i, align 8
  store ptr %8, ptr %ret, align 8
  %9 = load ptr, ptr %ret, align 8
  %cmp = icmp eq ptr %9, null
  %lnot = xor i1 %cmp, true
  %lnot1 = xor i1 %lnot, true
  %lnot.ext = zext i1 %lnot1 to i32
  %conv = sext i32 %lnot.ext to i64
  %tobool = icmp ne i64 %conv, 0
  br i1 %tobool, label %if.then, label %if.end5

if.then:                                          ; preds = %atomic_load_p.exit
  %10 = load i8, ptr %init_if_missing.addr, align 1
  %tobool2 = trunc i8 %10 to i1
  br i1 %tobool2, label %if.then3, label %if.end

if.then3:                                         ; preds = %if.then
  %11 = load ptr, ptr %tsdn.addr, align 8
  %12 = load i32, ptr %ind.addr, align 4
  %call4 = call ptr @arena_init(ptr noundef %11, i32 noundef %12, ptr noundef @arena_config_default)
  store ptr %call4, ptr %ret, align 8
  br label %if.end

if.end:                                           ; preds = %if.then3, %if.then
  br label %if.end5

if.end5:                                          ; preds = %if.end, %atomic_load_p.exit
  %13 = load ptr, ptr %ret, align 8
  ret ptr %13
}

; Function Attrs: nounwind uwtable
define hidden ptr @arena_choose_huge(ptr noundef %tsd) #0 {
entry:
  %tsd.addr.i26 = alloca ptr, align 8
  %tsd.addr.i25 = alloca ptr, align 8
  %tsd.addr.i24 = alloca ptr, align 8
  %tsd.addr.i = alloca ptr, align 8
  %retval = alloca ptr, align 8
  %tsd.addr = alloca ptr, align 8
  %huge_arena = alloca ptr, align 8
  store ptr %tsd, ptr %tsd.addr, align 8
  %0 = load i32, ptr @huge_arena_ind, align 4
  %cmp = icmp eq i32 %0, 0
  br i1 %cmp, label %if.then, label %if.end

if.then:                                          ; preds = %entry
  br label %do.body

do.body:                                          ; preds = %if.then
  br label %do.end

do.end:                                           ; preds = %do.body
  br label %if.end

if.end:                                           ; preds = %do.end, %entry
  %1 = load ptr, ptr %tsd.addr, align 8
  store ptr %1, ptr %tsd.addr.i26, align 8
  %2 = load ptr, ptr %tsd.addr.i26, align 8
  %3 = load i32, ptr @huge_arena_ind, align 4
  %call1 = call ptr @arena_get(ptr noundef %2, i32 noundef %3, i1 noundef zeroext false)
  store ptr %call1, ptr %huge_arena, align 8
  %4 = load ptr, ptr %huge_arena, align 8
  %cmp2 = icmp eq ptr %4, null
  br i1 %cmp2, label %if.then3, label %if.end23

if.then3:                                         ; preds = %if.end
  br label %do.body4

do.body4:                                         ; preds = %if.then3
  br label %do.end5

do.end5:                                          ; preds = %do.body4
  %5 = load ptr, ptr %tsd.addr, align 8
  store ptr %5, ptr %tsd.addr.i25, align 8
  %6 = load ptr, ptr %tsd.addr.i25, align 8
  %7 = load i32, ptr @huge_arena_ind, align 4
  %call7 = call ptr @arena_get(ptr noundef %6, i32 noundef %7, i1 noundef zeroext true)
  store ptr %call7, ptr %huge_arena, align 8
  %8 = load ptr, ptr %huge_arena, align 8
  %cmp8 = icmp eq ptr %8, null
  br i1 %cmp8, label %if.then9, label %if.end10

if.then9:                                         ; preds = %do.end5
  store ptr null, ptr %retval, align 8
  br label %return

if.end10:                                         ; preds = %do.end5
  %call11 = call i64 @arena_dirty_decay_ms_default_get()
  %cmp12 = icmp sgt i64 %call11, 0
  br i1 %cmp12, label %if.then13, label %if.end16

if.then13:                                        ; preds = %if.end10
  %9 = load ptr, ptr %tsd.addr, align 8
  store ptr %9, ptr %tsd.addr.i24, align 8
  %10 = load ptr, ptr %tsd.addr.i24, align 8
  %11 = load ptr, ptr %huge_arena, align 8
  %call15 = call zeroext i1 @arena_decay_ms_set(ptr noundef %10, ptr noundef %11, i32 noundef 1, i64 noundef 0)
  br label %if.end16

if.end16:                                         ; preds = %if.then13, %if.end10
  %call17 = call i64 @arena_muzzy_decay_ms_default_get()
  %cmp18 = icmp sgt i64 %call17, 0
  br i1 %cmp18, label %if.then19, label %if.end22

if.then19:                                        ; preds = %if.end16
  %12 = load ptr, ptr %tsd.addr, align 8
  store ptr %12, ptr %tsd.addr.i, align 8
  %13 = load ptr, ptr %tsd.addr.i, align 8
  %14 = load ptr, ptr %huge_arena, align 8
  %call21 = call zeroext i1 @arena_decay_ms_set(ptr noundef %13, ptr noundef %14, i32 noundef 2, i64 noundef 0)
  br label %if.end22

if.end22:                                         ; preds = %if.then19, %if.end16
  br label %if.end23

if.end23:                                         ; preds = %if.end22, %if.end
  %15 = load ptr, ptr %huge_arena, align 8
  store ptr %15, ptr %retval, align 8
  br label %return

return:                                           ; preds = %if.end23, %if.then9
  %16 = load ptr, ptr %retval, align 8
  ret ptr %16
}