; Function Attrs: nounwind uwtable
define hidden ptr @arena_choose_huge(ptr noundef %tsd) local_unnamed_addr #0 {
entry:
  %0 = load i32, ptr @huge_arena_ind, align 4
  %idxprom.i = zext i32 %0 to i64
  %arrayidx.i = getelementptr inbounds [0 x %struct.atomic_p_t], ptr @arenas, i64 0, i64 %idxprom.i
  %1 = load atomic i64, ptr %arrayidx.i acquire, align 8
  %2 = inttoptr i64 %1 to ptr
  %cmp2 = icmp eq i64 %1, 0
  br i1 %cmp2, label %do.end5, label %return

do.end5:                                          ; preds = %entry
  %3 = load i32, ptr @huge_arena_ind, align 4
  %idxprom.i8 = zext i32 %3 to i64
  %arrayidx.i9 = getelementptr inbounds [0 x %struct.atomic_p_t], ptr @arenas, i64 0, i64 %idxprom.i8
  %4 = load atomic i64, ptr %arrayidx.i9 acquire, align 8
  %5 = inttoptr i64 %4 to ptr
  %cmp.i10 = icmp eq i64 %4, 0
  br i1 %cmp.i10, label %if.then3.i, label %arena_get.exit

if.then3.i:                                       ; preds = %do.end5
  %call4.i = tail call ptr @arena_init(ptr noundef %tsd, i32 noundef %3, ptr noundef nonnull @arena_config_default) #15
  br label %arena_get.exit

arena_get.exit:                                   ; preds = %do.end5, %if.then3.i
  %ret.0.i = phi ptr [ %call4.i, %if.then3.i ], [ %5, %do.end5 ]
  %cmp8 = icmp eq ptr %ret.0.i, null
  br i1 %cmp8, label %return, label %if.end10

if.end10:                                         ; preds = %arena_get.exit
  %6 = load atomic i64, ptr @dirty_decay_ms_default.0 monotonic, align 8
  %cmp12 = icmp sgt i64 %6, 0
  br i1 %cmp12, label %if.then13, label %if.end16

if.then13:                                        ; preds = %if.end10
  %7 = load atomic i8, ptr @background_thread_enabled_state monotonic, align 1
  %8 = and i8 %7, 1
  %tobool.i.not.i.i = icmp eq i8 %8, 0
  %spec.select.i.i = select i1 %tobool.i.not.i.i, i32 2, i32 1
  %pa_shard.i = getelementptr inbounds i8, ptr %ret.0.i, i64 10648
  %call1.i = tail call zeroext i1 @pa_decay_ms_set(ptr noundef %tsd, ptr noundef nonnull %pa_shard.i, i32 noundef 1, i64 noundef 0, i32 noundef %spec.select.i.i) #15
  br label %if.end16

if.end16:                                         ; preds = %if.then13, %if.end10
  %9 = load atomic i64, ptr @muzzy_decay_ms_default.0 monotonic, align 8
  %cmp18 = icmp sgt i64 %9, 0
  br i1 %cmp18, label %if.then19, label %return

if.then19:                                        ; preds = %if.end16
  %10 = load atomic i8, ptr @background_thread_enabled_state monotonic, align 1
  %11 = and i8 %10, 1
  %tobool.i.not.i.i11 = icmp eq i8 %11, 0
  %spec.select.i.i12 = select i1 %tobool.i.not.i.i11, i32 2, i32 1
  %pa_shard.i13 = getelementptr inbounds i8, ptr %ret.0.i, i64 10648
  %call1.i14 = tail call zeroext i1 @pa_decay_ms_set(ptr noundef %tsd, ptr noundef nonnull %pa_shard.i13, i32 noundef 2, i64 noundef 0, i32 noundef %spec.select.i.i12) #15
  br label %return

return:                                           ; preds = %entry, %if.then19, %if.end16, %arena_get.exit
  %retval.0 = phi ptr [ null, %arena_get.exit ], [ %ret.0.i, %if.then19 ], [ %ret.0.i, %if.end16 ], [ %2, %entry ]
  ret ptr %retval.0
}